target datalayout = "e-m:e-p270:32:32-p271:32:32-p272:64:64-i64:64-i128:128-f80:128-n8:16:32:64-S128"
target triple = "x86_64-unknown-linux-gnu"

%"class.icu_75::UTF16CollationIterator" = type { %"class.icu_75::CollationIterator.base", ptr, ptr, ptr }
%"class.icu_75::CollationIterator.base" = type <{ %"class.icu_75::UObject", ptr, ptr, %"class.icu_75::CollationIterator::CEBuffer", i32, [4 x i8], ptr, i32, i8 }>
%"class.icu_75::UObject" = type { ptr }
%"class.icu_75::CollationIterator::CEBuffer" = type { i32, %"class.icu_75::MaybeStackArray.0" }
%"class.icu_75::MaybeStackArray.0" = type { ptr, i32, i8, [40 x i64] }

; Function Attrs: mustprogress nounwind uwtable
define noundef i32 @_ZN6icu_7522UTF16CollationIterator13nextCodePointER10UErrorCode(ptr noundef nonnull align 8 dereferenceable(416) %this, ptr noundef nonnull align 4 dereferenceable(4) %0) unnamed_addr #0 align 2 {
entry:
  %retval = alloca i32, align 4
  %this.addr = alloca ptr, align 8
  %.addr = alloca ptr, align 8
  %c = alloca i32, align 4
  %trail = alloca i16, align 2
  store ptr %this, ptr %this.addr, align 8
  store ptr %0, ptr %.addr, align 8
  %this1 = load ptr, ptr %this.addr, align 8
  %pos = getelementptr inbounds %"class.icu_75::UTF16CollationIterator", ptr %this1, i32 0, i32 2
  %1 = load ptr, ptr %pos, align 8
  %limit = getelementptr inbounds %"class.icu_75::UTF16CollationIterator", ptr %this1, i32 0, i32 3
  %2 = load ptr, ptr %limit, align 8
  %cmp = icmp eq ptr %1, %2
  br i1 %cmp, label %if.then, label %if.end

if.then:                                          ; preds = %entry
  store i32 -1, ptr %retval, align 4
  br label %return

if.end:                                           ; preds = %entry
  %pos2 = getelementptr inbounds %"class.icu_75::UTF16CollationIterator", ptr %this1, i32 0, i32 2
  %3 = load ptr, ptr %pos2, align 8
  %4 = load i16, ptr %3, align 2
  %conv = zext i16 %4 to i32
  store i32 %conv, ptr %c, align 4
  %5 = load i32, ptr %c, align 4
  %cmp3 = icmp eq i32 %5, 0
  br i1 %cmp3, label %land.lhs.true, label %if.end9

land.lhs.true:                                    ; preds = %if.end
  %limit4 = getelementptr inbounds %"class.icu_75::UTF16CollationIterator", ptr %this1, i32 0, i32 3
  %6 = load ptr, ptr %limit4, align 8
  %cmp5 = icmp eq ptr %6, null
  br i1 %cmp5, label %if.then6, label %if.end9

if.then6:                                         ; preds = %land.lhs.true
  %pos7 = getelementptr inbounds %"class.icu_75::UTF16CollationIterator", ptr %this1, i32 0, i32 2
  %7 = load ptr, ptr %pos7, align 8
  %limit8 = getelementptr inbounds %"class.icu_75::UTF16CollationIterator", ptr %this1, i32 0, i32 3
  store ptr %7, ptr %limit8, align 8
  store i32 -1, ptr %retval, align 4
  br label %return

if.end9:                                          ; preds = %land.lhs.true, %if.end
  %pos10 = getelementptr inbounds %"class.icu_75::UTF16CollationIterator", ptr %this1, i32 0, i32 2
  %8 = load ptr, ptr %pos10, align 8
  %incdec.ptr = getelementptr inbounds i16, ptr %8, i32 1
  store ptr %incdec.ptr, ptr %pos10, align 8
  %9 = load i32, ptr %c, align 4
  %and = and i32 %9, -1024
  %cmp11 = icmp eq i32 %and, 55296
  br i1 %cmp11, label %land.lhs.true12, label %if.else

land.lhs.true12:                                  ; preds = %if.end9
  %pos13 = getelementptr inbounds %"class.icu_75::UTF16CollationIterator", ptr %this1, i32 0, i32 2
  %10 = load ptr, ptr %pos13, align 8
  %limit14 = getelementptr inbounds %"class.icu_75::UTF16CollationIterator", ptr %this1, i32 0, i32 3
  %11 = load ptr, ptr %limit14, align 8
  %cmp15 = icmp ne ptr %10, %11
  br i1 %cmp15, label %land.lhs.true16, label %if.else

land.lhs.true16:                                  ; preds = %land.lhs.true12
  %pos17 = getelementptr inbounds %"class.icu_75::UTF16CollationIterator", ptr %this1, i32 0, i32 2
  %12 = load ptr, ptr %pos17, align 8
  %13 = load i16, ptr %12, align 2
  store i16 %13, ptr %trail, align 2
  %conv18 = zext i16 %13 to i32
  %and19 = and i32 %conv18, -1024
  %cmp20 = icmp eq i32 %and19, 56320
  br i1 %cmp20, label %if.then21, label %if.else

if.then21:                                        ; preds = %land.lhs.true16
  %pos22 = getelementptr inbounds %"class.icu_75::UTF16CollationIterator", ptr %this1, i32 0, i32 2
  %14 = load ptr, ptr %pos22, align 8
  %incdec.ptr23 = getelementptr inbounds i16, ptr %14, i32 1
  store ptr %incdec.ptr23, ptr %pos22, align 8
  %15 = load i32, ptr %c, align 4
  %shl = shl i32 %15, 10
  %16 = load i16, ptr %trail, align 2
  %conv24 = zext i16 %16 to i32
  %add = add nsw i32 %shl, %conv24
  %sub = sub nsw i32 %add, 56613888
  store i32 %sub, ptr %retval, align 4
  br label %return

if.else:                                          ; preds = %land.lhs.true16, %land.lhs.true12, %if.end9
  %17 = load i32, ptr %c, align 4
  store i32 %17, ptr %retval, align 4
  br label %return

return:                                           ; preds = %if.else, %if.then21, %if.then6, %if.then
  %18 = load i32, ptr %retval, align 4
  ret i32 %18
}