; Function Attrs: mustprogress nofree norecurse nosync nounwind willreturn memory(read, argmem: readwrite, inaccessiblemem: none) uwtable
define noundef i32 @_ZN6icu_7522UTF16CollationIterator13nextCodePointER10UErrorCode(ptr nocapture noundef nonnull align 8 dereferenceable(416) %this, ptr nocapture nonnull readnone align 4 %0) unnamed_addr #8 align 2 {
entry:
  %pos = getelementptr inbounds i8, ptr %this, i64 400
  %1 = load ptr, ptr %pos, align 8
  %limit = getelementptr inbounds i8, ptr %this, i64 408
  %2 = load ptr, ptr %limit, align 8
  %cmp = icmp eq ptr %1, %2
  br i1 %cmp, label %return, label %if.end

if.end:                                           ; preds = %entry
  %3 = load i16, ptr %1, align 2
  %conv = zext i16 %3 to i32
  %cmp3 = icmp eq i16 %3, 0
  %cmp5 = icmp eq ptr %2, null
  %or.cond = and i1 %cmp5, %cmp3
  br i1 %or.cond, label %if.then6, label %if.end9

if.then6:                                         ; preds = %if.end
  store ptr %1, ptr %limit, align 8
  br label %return

if.end9:                                          ; preds = %if.end
  %incdec.ptr = getelementptr inbounds i8, ptr %1, i64 2
  store ptr %incdec.ptr, ptr %pos, align 8
  %and = and i32 %conv, 64512
  %cmp11 = icmp ne i32 %and, 55296
  %cmp15.not = icmp eq ptr %incdec.ptr, %2
  %or.cond5 = select i1 %cmp11, i1 true, i1 %cmp15.not
  br i1 %or.cond5, label %return, label %land.lhs.true16

land.lhs.true16:                                  ; preds = %if.end9
  %4 = load i16, ptr %incdec.ptr, align 2
  %conv18 = zext i16 %4 to i32
  %and19 = and i32 %conv18, 64512
  %cmp20 = icmp eq i32 %and19, 56320
  br i1 %cmp20, label %if.then21, label %return

if.then21:                                        ; preds = %land.lhs.true16
  %incdec.ptr23 = getelementptr inbounds i8, ptr %1, i64 4
  store ptr %incdec.ptr23, ptr %pos, align 8
  %shl = shl nuw nsw i32 %conv, 10
  %add = add nsw i32 %shl, -56613888
  %sub = add nuw nsw i32 %add, %conv18
  br label %return

return:                                           ; preds = %if.end9, %land.lhs.true16, %entry, %if.then21, %if.then6
  %retval.0 = phi i32 [ -1, %if.then6 ], [ %sub, %if.then21 ], [ -1, %entry ], [ %conv, %land.lhs.true16 ], [ %conv, %if.end9 ]
  ret i32 %retval.0
}